target datalayout = "e-m:e-p270:32:32-p271:32:32-p272:64:64-i64:64-i128:128-f80:128-n8:16:32:64-S128"
target triple = "x86_64-pc-linux-gnu"

%struct.sockaddr_in = type { i16, i16, %struct.in_addr, [8 x i8] }
%struct.in_addr = type { i32 }
%struct.hostent = type { ptr, ptr, i32, i32, ptr }

@.str.204 = private unnamed_addr constant [19 x i8] c"tcp connect failed\00", align 1
@.str.205 = private unnamed_addr constant [45 x i8] c"invalid argument to build_addr, addr is NULL\00", align 1
@.str.206 = private unnamed_addr constant [18 x i8] c"no entry for host\00", align 1

; Function Attrs: inlinehint nounwind uwtable
define internal zeroext i16 @__bswap_16(i16 noundef zeroext %0) #2 {
  %2 = alloca i16, align 2
  store i16 %0, ptr %2, align 2, !tbaa !16
  %3 = load i16, ptr %2, align 2, !tbaa !16
  %4 = zext i16 %3 to i32
  %5 = ashr i32 %4, 8
  %6 = and i32 %5, 255
  %7 = load i16, ptr %2, align 2, !tbaa !16
  %8 = zext i16 %7 to i32
  %9 = and i32 %8, 255
  %10 = shl i32 %9, 8
  %11 = or i32 %6, %10
  %12 = trunc i32 %11 to i16
  ret i16 %12
}

; Function Attrs: inlinehint nounwind uwtable
define internal void @build_addr(ptr noundef %0, ptr noundef %1, i16 noundef zeroext %2, i32 noundef %3, i32 noundef %4) #2 {
  %6 = alloca ptr, align 8
  %7 = alloca ptr, align 8
  %8 = alloca i16, align 2
  %9 = alloca i32, align 4
  %10 = alloca i32, align 4
  %11 = alloca i32, align 4
  %12 = alloca ptr, align 8
  store ptr %0, ptr %6, align 8, !tbaa !77
  store ptr %1, ptr %7, align 8, !tbaa !18
  store i16 %2, ptr %8, align 2, !tbaa !16
  store i32 %3, ptr %9, align 4, !tbaa !8
  store i32 %4, ptr %10, align 4, !tbaa !8
  call void @llvm.lifetime.start.p0(i64 4, ptr %11) #13
  store i32 0, ptr %11, align 4, !tbaa !8
  %13 = load ptr, ptr %6, align 8, !tbaa !77
  %14 = icmp eq ptr %13, null
  br i1 %14, label %15, label %16

15:                                               ; preds = %5
  call void @err_sys(ptr noundef @.str.205) #16
  unreachable

16:                                               ; preds = %5
  %17 = load ptr, ptr %6, align 8, !tbaa !77
  call void @llvm.memset.p0.i64(ptr align 4 %17, i8 0, i64 16, i1 false)
  %18 = load ptr, ptr %7, align 8, !tbaa !18
  %19 = ptrtoint ptr %18 to i64
  %20 = icmp ne i64 %19, 0
  br i1 %20, label %21, label %54

21:                                               ; preds = %16
  %22 = call ptr @__ctype_b_loc() #17
  %23 = load ptr, ptr %22, align 8, !tbaa !79
  %24 = load ptr, ptr %7, align 8, !tbaa !18
  %25 = getelementptr inbounds i8, ptr %24, i64 0
  %26 = load i8, ptr %25, align 1, !tbaa !22
  %27 = zext i8 %26 to i32
  %28 = sext i32 %27 to i64
  %29 = getelementptr inbounds i16, ptr %23, i64 %28
  %30 = load i16, ptr %29, align 2, !tbaa !16
  %31 = zext i16 %30 to i32
  %32 = and i32 %31, 1024
  %33 = icmp ne i32 %32, 0
  br i1 %33, label %34, label %54

34:                                               ; preds = %21
  call void @llvm.lifetime.start.p0(i64 8, ptr %12) #13
  %35 = load ptr, ptr %7, align 8, !tbaa !18
  %36 = call ptr @gethostbyname(ptr noundef %35)
  store ptr %36, ptr %12, align 8, !tbaa !81
  %37 = load ptr, ptr %12, align 8, !tbaa !81
  %38 = icmp ne ptr %37, null
  br i1 %38, label %39, label %52

39:                                               ; preds = %34
  %40 = load ptr, ptr %6, align 8, !tbaa !77
  %41 = getelementptr inbounds nuw %struct.sockaddr_in, ptr %40, i32 0, i32 2
  %42 = getelementptr inbounds nuw %struct.in_addr, ptr %41, i32 0, i32 0
  %43 = load ptr, ptr %12, align 8, !tbaa !81
  %44 = getelementptr inbounds nuw %struct.hostent, ptr %43, i32 0, i32 4
  %45 = load ptr, ptr %44, align 8, !tbaa !83
  %46 = getelementptr inbounds ptr, ptr %45, i64 0
  %47 = load ptr, ptr %46, align 8, !tbaa !18
  %48 = load ptr, ptr %12, align 8, !tbaa !81
  %49 = getelementptr inbounds nuw %struct.hostent, ptr %48, i32 0, i32 3
  %50 = load i32, ptr %49, align 4, !tbaa !85
  %51 = sext i32 %50 to i64
  call void @llvm.memcpy.p0.p0.i64(ptr align 4 %42, ptr align 1 %47, i64 %51, i1 false)
  store i32 1, ptr %11, align 4, !tbaa !8
  br label %53

52:                                               ; preds = %34
  call void @err_sys(ptr noundef @.str.206) #16
  unreachable

53:                                               ; preds = %39
  call void @llvm.lifetime.end.p0(i64 8, ptr %12) #13
  br label %54

54:                                               ; preds = %53, %21, %16
  %55 = load ptr, ptr %6, align 8, !tbaa !77
  %56 = getelementptr inbounds nuw %struct.sockaddr_in, ptr %55, i32 0, i32 0
  store i16 2, ptr %56, align 4, !tbaa !86
  %57 = load i16, ptr %8, align 2, !tbaa !16
  %58 = call zeroext i16 @__bswap_16(i16 noundef zeroext %57)
  %59 = load ptr, ptr %6, align 8, !tbaa !77
  %60 = getelementptr inbounds nuw %struct.sockaddr_in, ptr %59, i32 0, i32 1
  store i16 %58, ptr %60, align 2, !tbaa !89
  %61 = load ptr, ptr %7, align 8, !tbaa !18
  %62 = ptrtoint ptr %61 to i64
  %63 = icmp eq i64 %62, 0
  br i1 %63, label %64, label %68

64:                                               ; preds = %54
  %65 = load ptr, ptr %6, align 8, !tbaa !77
  %66 = getelementptr inbounds nuw %struct.sockaddr_in, ptr %65, i32 0, i32 2
  %67 = getelementptr inbounds nuw %struct.in_addr, ptr %66, i32 0, i32 0
  store i32 0, ptr %67, align 4, !tbaa !90
  br label %78

68:                                               ; preds = %54
  %69 = load i32, ptr %11, align 4, !tbaa !8
  %70 = icmp ne i32 %69, 0
  br i1 %70, label %77, label %71

71:                                               ; preds = %68
  %72 = load ptr, ptr %7, align 8, !tbaa !18
  %73 = call i32 @inet_addr(ptr noundef %72) #13
  %74 = load ptr, ptr %6, align 8, !tbaa !77
  %75 = getelementptr inbounds nuw %struct.sockaddr_in, ptr %74, i32 0, i32 2
  %76 = getelementptr inbounds nuw %struct.in_addr, ptr %75, i32 0, i32 0
  store i32 %73, ptr %76, align 4, !tbaa !90
  br label %77

77:                                               ; preds = %71, %68
  br label %78

78:                                               ; preds = %77, %64
  call void @llvm.lifetime.end.p0(i64 4, ptr %11) #13
  ret void
}

; Function Attrs: inlinehint nounwind uwtable
define internal void @udp_connect(ptr noundef %0, ptr noundef %1, i16 noundef zeroext %2) #2 {
  %4 = alloca ptr, align 8
  %5 = alloca ptr, align 8
  %6 = alloca i16, align 2
  %7 = alloca %struct.sockaddr_in, align 4
  store ptr %0, ptr %4, align 8, !tbaa !43
  store ptr %1, ptr %5, align 8, !tbaa !18
  store i16 %2, ptr %6, align 2, !tbaa !16
  call void @llvm.lifetime.start.p0(i64 16, ptr %7) #13
  %8 = load ptr, ptr %5, align 8, !tbaa !18
  %9 = load i16, ptr %6, align 2, !tbaa !16
  call void @build_addr(ptr noundef %7, ptr noundef %8, i16 noundef zeroext %9, i32 noundef 1, i32 noundef 0)
  %10 = load ptr, ptr %4, align 8, !tbaa !43
  %11 = load i32, ptr %10, align 4, !tbaa !8
  %12 = call i32 @connect(i32 noundef %11, ptr noundef %7, i32 noundef 16)
  %13 = icmp ne i32 %12, 0
  br i1 %13, label %14, label %15

14:                                               ; preds = %3
  call void @err_sys_with_errno(ptr noundef @.str.204) #16
  unreachable

15:                                               ; preds = %3
  call void @llvm.lifetime.end.p0(i64 16, ptr %7) #13
  ret void
}