; Function Attrs: inlinehint nounwind uwtable
define internal fastcc void @udp_connect(ptr noundef nonnull readonly captures(none) %0, ptr noundef %1, i16 noundef zeroext %2) unnamed_addr #9 {
  %4 = alloca %struct.sockaddr_in, align 4
  call void @llvm.lifetime.start.p0(i64 16, ptr nonnull %4) #20
  call void @llvm.memset.p0.i64(ptr noundef nonnull align 4 dereferenceable(16) %4, i8 0, i64 16, i1 false)
  %.not.i = icmp eq ptr %1, null
  br i1 %.not.i, label %16, label %5

5:                                                ; preds = %3
  %6 = tail call ptr @__ctype_b_loc() #27
  %7 = load ptr, ptr %6, align 8, !tbaa !38
  %8 = load i8, ptr %1, align 1, !tbaa !18
  %9 = zext i8 %8 to i64
  %10 = getelementptr inbounds nuw i16, ptr %7, i64 %9
  %11 = load i16, ptr %10, align 2, !tbaa !40
  %12 = and i16 %11, 1024
  %.not18.i = icmp eq i16 %12, 0
  br i1 %.not18.i, label %27, label %13

13:                                               ; preds = %5
  %14 = tail call ptr @gethostbyname(ptr noundef nonnull %1) #20
  %.not19.i = icmp eq ptr %14, null
  br i1 %.not19.i, label %15, label %18

15:                                               ; preds = %13
  tail call fastcc void @err_sys(ptr noundef nonnull @.str.206) #25
  unreachable

16:                                               ; preds = %3
  store i16 2, ptr %4, align 4, !tbaa !42
  %rev.i.i = tail call noundef i16 @llvm.bswap.i16(i16 %2)
  %17 = getelementptr inbounds nuw i8, ptr %4, i64 2
  store i16 %rev.i.i, ptr %17, align 2, !tbaa !45
  br label %build_addr.exit

18:                                               ; preds = %13
  %19 = getelementptr inbounds nuw i8, ptr %4, i64 4
  %20 = getelementptr inbounds nuw i8, ptr %14, i64 24
  %21 = load ptr, ptr %20, align 8, !tbaa !46
  %22 = load ptr, ptr %21, align 8, !tbaa !16
  %23 = getelementptr inbounds nuw i8, ptr %14, i64 20
  %24 = load i32, ptr %23, align 4, !tbaa !48
  %25 = sext i32 %24 to i64
  call void @llvm.memcpy.p0.p0.i64(ptr nonnull align 4 %19, ptr align 1 %22, i64 %25, i1 false)
  store i16 2, ptr %4, align 4, !tbaa !42
  %rev.i22.i = tail call noundef i16 @llvm.bswap.i16(i16 %2)
  %26 = getelementptr inbounds nuw i8, ptr %4, i64 2
  store i16 %rev.i22.i, ptr %26, align 2, !tbaa !45
  br label %build_addr.exit

27:                                               ; preds = %5
  store i16 2, ptr %4, align 4, !tbaa !42
  %rev.i2226.i = tail call noundef i16 @llvm.bswap.i16(i16 %2)
  %28 = getelementptr inbounds nuw i8, ptr %4, i64 2
  store i16 %rev.i2226.i, ptr %28, align 2, !tbaa !45
  %29 = tail call i32 @inet_addr(ptr noundef nonnull %1) #20
  %30 = getelementptr inbounds nuw i8, ptr %4, i64 4
  store i32 %29, ptr %30, align 4, !tbaa !49
  br label %build_addr.exit

build_addr.exit:                                  ; preds = %16, %18, %27
  %31 = load i32, ptr %0, align 4, !tbaa !4
  %32 = call i32 @connect(i32 noundef %31, ptr noundef nonnull %4, i32 noundef 16) #20
  %.not = icmp eq i32 %32, 0
  br i1 %.not, label %34, label %33

33:                                               ; preds = %build_addr.exit
  call fastcc void @err_sys_with_errno(ptr noundef nonnull @.str.204) #25
  unreachable

34:                                               ; preds = %build_addr.exit
  call void @llvm.lifetime.end.p0(i64 16, ptr nonnull %4) #20
  ret void
}